Certificate:
    Data:
        Version: 3 (0x2)
        Serial Number: 2 (0x2)
    Signature Algorithm: sha1WithRSAEncryption
        Issuer: C=BR, ST=MG, L=Belo Horizonte, O=ToFalando, OU=ToFalando, CN=vpn.tofalando.com.br/name=ToFalando/emailAddress=suporte@tofalando.com.br
        Validity
            Not Before: Mar 16 18:42:59 2014 GMT
            Not After : Mar 13 18:42:59 2024 GMT
        Subject: C=BR, ST=MG, L=Belo Horizonte, O=ToFalando, OU=ToFalando, CN=ipbx/name=ToFalando/emailAddress=suporte@tofalando.com.br
        Subject Public Key Info:
            Public Key Algorithm: rsaEncryption
                Public-Key: (1024 bit)
                Modulus:
                    00:d2:0d:91:24:68:3e:52:c4:85:94:36:87:df:c3:
                    cf:d6:2b:e8:32:79:33:7b:42:79:5b:21:bd:c3:9f:
                    9a:25:35:27:62:7d:bf:a7:70:83:35:5b:51:39:07:
                    59:08:97:f5:db:c7:f0:43:29:62:d9:15:7d:87:36:
                    72:38:d4:de:10:a1:7f:09:12:52:8a:e4:1a:eb:2e:
                    77:ee:23:69:66:47:11:48:c2:ef:1f:40:b9:37:78:
                    64:43:43:ac:f1:6b:93:31:49:50:ad:9a:77:d5:12:
                    2f:0e:e0:1d:23:db:24:fb:a2:7c:1b:f6:a5:fb:2d:
                    86:6d:9c:e8:3f:76:d1:4f:5d
                Exponent: 65537 (0x10001)
        X509v3 extensions:
            X509v3 Basic Constraints: 
                CA:FALSE
            Netscape Comment: 
                Easy-RSA Generated Certificate
            X509v3 Subject Key Identifier: 
                9C:12:01:CF:F0:5C:81:F1:F8:12:5D:87:8D:49:1A:41:EF:F6:69:9B
            X509v3 Authority Key Identifier: 
                keyid:1F:27:2D:E6:52:2E:2E:CB:81:73:BB:75:24:46:44:3B:F1:72:58:32
                DirName:/C=BR/ST=MG/L=Belo Horizonte/O=ToFalando/OU=ToFalando/CN=vpn.tofalando.com.br/name=ToFalando/emailAddress=suporte@tofalando.com.br
                serial:B9:92:AB:36:53:FE:04:E8

            X509v3 Extended Key Usage: 
                TLS Web Client Authentication
            X509v3 Key Usage: 
                Digital Signature
    Signature Algorithm: sha1WithRSAEncryption
         97:4e:a8:bc:dd:a0:01:68:ac:09:13:1a:d8:9c:e2:79:26:51:
         d7:67:cd:d1:38:cd:6d:10:3d:45:3f:12:78:af:af:b5:e6:a0:
         fd:93:a6:5d:46:18:ad:bb:87:91:a5:33:a6:7b:5d:3b:80:c8:
         17:a5:3f:52:ec:58:19:ca:07:71:8a:c4:78:ca:69:27:02:e2:
         ca:3b:8e:a6:b7:5e:b2:cc:36:3b:f3:b2:12:9b:bc:6a:2c:ca:
         34:05:fd:1d:f9:71:c0:6b:7c:5f:46:86:c3:4f:39:39:fa:2e:
         c5:6b:83:c8:9c:9d:2b:eb:7f:14:67:c6:28:61:26:72:f3:37:
         a2:16
-----BEGIN CERTIFICATE-----
MIIERjCCA6+gAwIBAgIBAjANBgkqhkiG9w0BAQUFADCBtzELMAkGA1UEBhMCQlIx
CzAJBgNVBAgTAk1HMRcwFQYDVQQHEw5CZWxvIEhvcml6b250ZTESMBAGA1UEChMJ
VG9GYWxhbmRvMRIwEAYDVQQLEwlUb0ZhbGFuZG8xHTAbBgNVBAMTFHZwbi50b2Zh
bGFuZG8uY29tLmJyMRIwEAYDVQQpEwlUb0ZhbGFuZG8xJzAlBgkqhkiG9w0BCQEW
GHN1cG9ydGVAdG9mYWxhbmRvLmNvbS5icjAeFw0xNDAzMTYxODQyNTlaFw0yNDAz
MTMxODQyNTlaMIGnMQswCQYDVQQGEwJCUjELMAkGA1UECBMCTUcxFzAVBgNVBAcT
DkJlbG8gSG9yaXpvbnRlMRIwEAYDVQQKEwlUb0ZhbGFuZG8xEjAQBgNVBAsTCVRv
RmFsYW5kbzENMAsGA1UEAxMEaXBieDESMBAGA1UEKRMJVG9GYWxhbmRvMScwJQYJ
KoZIhvcNAQkBFhhzdXBvcnRlQHRvZmFsYW5kby5jb20uYnIwgZ8wDQYJKoZIhvcN
AQEBBQADgY0AMIGJAoGBANINkSRoPlLEhZQ2h9/Dz9Yr6DJ5M3tCeVshvcOfmiU1
J2J9v6dwgzVbUTkHWQiX9dvH8EMpYtkVfYc2cjjU3hChfwkSUorkGusud+4jaWZH
EUjC7x9AuTd4ZENDrPFrkzFJUK2ad9USLw7gHSPbJPuifBv2pfsthm2c6D920U9d
AgMBAAGjggFuMIIBajAJBgNVHRMEAjAAMC0GCWCGSAGG+EIBDQQgFh5FYXN5LVJT
QSBHZW5lcmF0ZWQgQ2VydGlmaWNhdGUwHQYDVR0OBBYEFJwSAc/wXIHx+BJdh41J
GkHv9mmbMIHsBgNVHSMEgeQwgeGAFB8nLeZSLi7LgXO7dSRGRDvxclgyoYG9pIG6
MIG3MQswCQYDVQQGEwJCUjELMAkGA1UECBMCTUcxFzAVBgNVBAcTDkJlbG8gSG9y
aXpvbnRlMRIwEAYDVQQKEwlUb0ZhbGFuZG8xEjAQBgNVBAsTCVRvRmFsYW5kbzEd
MBsGA1UEAxMUdnBuLnRvZmFsYW5kby5jb20uYnIxEjAQBgNVBCkTCVRvRmFsYW5k
bzEnMCUGCSqGSIb3DQEJARYYc3Vwb3J0ZUB0b2ZhbGFuZG8uY29tLmJyggkAuZKr
NlP+BOgwEwYDVR0lBAwwCgYIKwYBBQUHAwIwCwYDVR0PBAQDAgeAMA0GCSqGSIb3
DQEBBQUAA4GBAJdOqLzdoAForAkTGtic4nkmUddnzdE4zW0QPUU/Enivr7XmoP2T
pl1GGK27h5GlM6Z7XTuAyBelP1LsWBnKB3GKxHjKaScC4so7jqa3XrLMNjvzshKb
vGosyjQF/R35ccBrfF9GhsNPOTn6LsVrg8icnSvrfxRnxihhJnLzN6IW
-----END CERTIFICATE-----
